target datalayout = "e-m:e-p270:32:32-p271:32:32-p272:64:64-i64:64-i128:128-f80:128-n8:16:32:64-S128"
target triple = "x86_64-pc-linux-gnu"

%struct._priv_exr_context_t = type { i8, i8, i8, i8, i8, i8, i8, i8, %struct.exr_attr_string_t, %struct.exr_attr_string_t, ptr, ptr, ptr, ptr, ptr, ptr, ptr, ptr, i32, i32, i32, i32, i32, float, ptr, ptr, ptr, i64, ptr, ptr, i64, i32, i32, i32, i32, %struct._priv_exr_part_t, ptr, ptr, %struct.exr_attribute_list, %union.pthread_mutex_t, i8, i8, [2 x i8], i32 }
%struct.exr_attr_string_t = type { i32, i32, ptr }
%struct._priv_exr_part_t = type { i32, i32, %struct.exr_attribute_list, ptr, ptr, ptr, ptr, ptr, ptr, ptr, ptr, ptr, ptr, ptr, ptr, ptr, ptr, %struct.exr_attr_box2i_t, %struct.exr_attr_box2i_t, i32, i32, i32, float, i32, i32, ptr, ptr, ptr, ptr, i64, i16, i16, i32, i64, i64 }
%struct.exr_attr_box2i_t = type { %struct.exr_attr_v2i_t, %struct.exr_attr_v2i_t }
%struct.exr_attr_v2i_t = type { i32, i32 }
%struct.exr_attribute_list = type { i32, i32, ptr, ptr }
%union.pthread_mutex_t = type { %struct.__pthread_mutex_s }
%struct.__pthread_mutex_s = type { i32, i32, i32, i32, i32, i16, i16, %struct.__pthread_internal_list }
%struct.__pthread_internal_list = type { ptr, ptr }
%struct.exr_attribute_t = type { ptr, ptr, i8, i8, [2 x i8], i32, %union.anon }
%union.anon = type { double }
%struct.exr_attr_chlist_t = type { i32, i32, ptr }
%struct.exr_attr_chlist_entry_t = type { %struct.exr_attr_string_t, i32, i8, [3 x i8], i32, i32 }

; Function Attrs: inlinehint nounwind uwtable
define internal void @priv_from_native32(ptr noundef %0, i32 noundef %1) #2 {
  %3 = alloca ptr, align 8
  %4 = alloca i32, align 4
  store ptr %0, ptr %3, align 8, !tbaa !32
  store i32 %1, ptr %4, align 4, !tbaa !10
  ret void
}

; Function Attrs: nounwind uwtable
define internal i32 @save_attr_sz(ptr noundef %0, i64 noundef %1) #0 {
  %3 = alloca i32, align 4
  %4 = alloca ptr, align 8
  %5 = alloca i64, align 8
  %6 = alloca i32, align 4
  %7 = alloca i32, align 4
  store ptr %0, ptr %4, align 8, !tbaa !3
  store i64 %1, ptr %5, align 8, !tbaa !61
  call void @llvm.lifetime.start.p0(i64 4, ptr %6) #6
  %8 = load i64, ptr %5, align 8, !tbaa !61
  %9 = icmp ugt i64 %8, 2147483647
  br i1 %9, label %10, label %16

10:                                               ; preds = %2
  %11 = load ptr, ptr %4, align 8, !tbaa !3
  %12 = getelementptr inbounds nuw %struct._priv_exr_context_t, ptr %11, i32 0, i32 12
  %13 = load ptr, ptr %12, align 8, !tbaa !57
  %14 = load ptr, ptr %4, align 8, !tbaa !3
  %15 = call i32 %13(ptr noundef %14, i32 noundef 3)
  store i32 %15, ptr %3, align 4
  store i32 1, ptr %7, align 4
  br label %26

16:                                               ; preds = %2
  %17 = load i64, ptr %5, align 8, !tbaa !61
  %18 = trunc i64 %17 to i32
  store i32 %18, ptr %6, align 4, !tbaa !10
  call void @priv_from_native32(ptr noundef %6, i32 noundef 1)
  %19 = load ptr, ptr %4, align 8, !tbaa !3
  %20 = getelementptr inbounds nuw %struct._priv_exr_context_t, ptr %19, i32 0, i32 11
  %21 = load ptr, ptr %20, align 8, !tbaa !49
  %22 = load ptr, ptr %4, align 8, !tbaa !3
  %23 = load ptr, ptr %4, align 8, !tbaa !3
  %24 = getelementptr inbounds nuw %struct._priv_exr_context_t, ptr %23, i32 0, i32 30
  %25 = call i32 %21(ptr noundef %22, ptr noundef %6, i64 noundef 4, ptr noundef %24)
  store i32 %25, ptr %3, align 4
  store i32 1, ptr %7, align 4
  br label %26

26:                                               ; preds = %16, %10
  call void @llvm.lifetime.end.p0(i64 4, ptr %6) #6
  %27 = load i32, ptr %3, align 4
  ret i32 %27
}

; Function Attrs: nounwind uwtable
define internal i32 @save_chlist(ptr noundef %0, ptr noundef %1) #0 {
  %3 = alloca ptr, align 8
  %4 = alloca ptr, align 8
  %5 = alloca i32, align 4
  %6 = alloca i64, align 8
  %7 = alloca i32, align 4
  %8 = alloca i8, align 1
  %9 = alloca [4 x i8], align 1
  %10 = alloca [2 x i32], align 4
  %11 = alloca i32, align 4
  %12 = alloca ptr, align 8
  %13 = alloca i32, align 4
  %14 = alloca i32, align 4
  %15 = alloca ptr, align 8
  store ptr %0, ptr %3, align 8, !tbaa !3
  store ptr %1, ptr %4, align 8, !tbaa !32
  call void @llvm.lifetime.start.p0(i64 4, ptr %5) #6
  call void @llvm.lifetime.start.p0(i64 8, ptr %6) #6
  store i64 0, ptr %6, align 8, !tbaa !61
  call void @llvm.lifetime.start.p0(i64 4, ptr %7) #6
  call void @llvm.lifetime.start.p0(i64 1, ptr %8) #6
  call void @llvm.lifetime.start.p0(i64 4, ptr %9) #6
  call void @llvm.lifetime.start.p0(i64 8, ptr %10) #6
  call void @llvm.lifetime.start.p0(i64 4, ptr %11) #6
  store i32 0, ptr %11, align 4, !tbaa !10
  br label %16

16:                                               ; preds = %44, %2
  %17 = load i32, ptr %11, align 4, !tbaa !10
  %18 = load ptr, ptr %4, align 8, !tbaa !32
  %19 = getelementptr inbounds nuw %struct.exr_attribute_t, ptr %18, i32 0, i32 6
  %20 = load ptr, ptr %19, align 8, !tbaa !37
  %21 = getelementptr inbounds nuw %struct.exr_attr_chlist_t, ptr %20, i32 0, i32 0
  %22 = load i32, ptr %21, align 8, !tbaa !38
  %23 = icmp slt i32 %17, %22
  br i1 %23, label %25, label %24

24:                                               ; preds = %16
  call void @llvm.lifetime.end.p0(i64 4, ptr %11) #6
  br label %47

25:                                               ; preds = %16
  call void @llvm.lifetime.start.p0(i64 8, ptr %12) #6
  %26 = load ptr, ptr %4, align 8, !tbaa !32
  %27 = getelementptr inbounds nuw %struct.exr_attribute_t, ptr %26, i32 0, i32 6
  %28 = load ptr, ptr %27, align 8, !tbaa !37
  %29 = getelementptr inbounds nuw %struct.exr_attr_chlist_t, ptr %28, i32 0, i32 2
  %30 = load ptr, ptr %29, align 8, !tbaa !40
  %31 = load i32, ptr %11, align 4, !tbaa !10
  %32 = sext i32 %31 to i64
  %33 = getelementptr inbounds %struct.exr_attr_chlist_entry_t, ptr %30, i64 %32
  store ptr %33, ptr %12, align 8, !tbaa !32
  %34 = load ptr, ptr %12, align 8, !tbaa !32
  %35 = getelementptr inbounds nuw %struct.exr_attr_chlist_entry_t, ptr %34, i32 0, i32 0
  %36 = getelementptr inbounds nuw %struct.exr_attr_string_t, ptr %35, i32 0, i32 0
  %37 = load i32, ptr %36, align 8, !tbaa !41
  %38 = add nsw i32 %37, 1
  %39 = sext i32 %38 to i64
  %40 = load i64, ptr %6, align 8, !tbaa !61
  %41 = add i64 %40, %39
  store i64 %41, ptr %6, align 8, !tbaa !61
  %42 = load i64, ptr %6, align 8, !tbaa !61
  %43 = add i64 %42, 16
  store i64 %43, ptr %6, align 8, !tbaa !61
  call void @llvm.lifetime.end.p0(i64 8, ptr %12) #6
  br label %44

44:                                               ; preds = %25
  %45 = load i32, ptr %11, align 4, !tbaa !10
  %46 = add nsw i32 %45, 1
  store i32 %46, ptr %11, align 4, !tbaa !10
  br label %16, !llvm.loop !62

47:                                               ; preds = %24
  %48 = load i64, ptr %6, align 8, !tbaa !61
  %49 = add i64 %48, 1
  store i64 %49, ptr %6, align 8, !tbaa !61
  %50 = load ptr, ptr %3, align 8, !tbaa !3
  %51 = load i64, ptr %6, align 8, !tbaa !61
  %52 = call i32 @save_attr_sz(ptr noundef %50, i64 noundef %51)
  store i32 %52, ptr %5, align 4, !tbaa !10
  call void @llvm.lifetime.start.p0(i64 4, ptr %13) #6
  store i32 0, ptr %13, align 4, !tbaa !10
  br label %53

53:                                               ; preds = %150, %47
  %54 = load i32, ptr %5, align 4, !tbaa !10
  %55 = icmp eq i32 %54, 0
  br i1 %55, label %56, label %64

56:                                               ; preds = %53
  %57 = load i32, ptr %13, align 4, !tbaa !10
  %58 = load ptr, ptr %4, align 8, !tbaa !32
  %59 = getelementptr inbounds nuw %struct.exr_attribute_t, ptr %58, i32 0, i32 6
  %60 = load ptr, ptr %59, align 8, !tbaa !37
  %61 = getelementptr inbounds nuw %struct.exr_attr_chlist_t, ptr %60, i32 0, i32 0
  %62 = load i32, ptr %61, align 8, !tbaa !38
  %63 = icmp slt i32 %57, %62
  br label %64

64:                                               ; preds = %56, %53
  %65 = phi i1 [ false, %53 ], [ %63, %56 ]
  br i1 %65, label %67, label %66

66:                                               ; preds = %64
  store i32 5, ptr %14, align 4
  br label %153

67:                                               ; preds = %64
  call void @llvm.lifetime.start.p0(i64 8, ptr %15) #6
  %68 = load ptr, ptr %4, align 8, !tbaa !32
  %69 = getelementptr inbounds nuw %struct.exr_attribute_t, ptr %68, i32 0, i32 6
  %70 = load ptr, ptr %69, align 8, !tbaa !37
  %71 = getelementptr inbounds nuw %struct.exr_attr_chlist_t, ptr %70, i32 0, i32 2
  %72 = load ptr, ptr %71, align 8, !tbaa !40
  %73 = load i32, ptr %13, align 4, !tbaa !10
  %74 = sext i32 %73 to i64
  %75 = getelementptr inbounds %struct.exr_attr_chlist_entry_t, ptr %72, i64 %74
  store ptr %75, ptr %15, align 8, !tbaa !32
  %76 = load ptr, ptr %15, align 8, !tbaa !32
  %77 = getelementptr inbounds nuw %struct.exr_attr_chlist_entry_t, ptr %76, i32 0, i32 1
  %78 = load i32, ptr %77, align 8, !tbaa !63
  store i32 %78, ptr %7, align 4, !tbaa !10
  %79 = load ptr, ptr %15, align 8, !tbaa !32
  %80 = getelementptr inbounds nuw %struct.exr_attr_chlist_entry_t, ptr %79, i32 0, i32 4
  %81 = load i32, ptr %80, align 8, !tbaa !64
  %82 = getelementptr inbounds [2 x i32], ptr %10, i64 0, i64 0
  store i32 %81, ptr %82, align 4, !tbaa !10
  %83 = load ptr, ptr %15, align 8, !tbaa !32
  %84 = getelementptr inbounds nuw %struct.exr_attr_chlist_entry_t, ptr %83, i32 0, i32 5
  %85 = load i32, ptr %84, align 4, !tbaa !65
  %86 = getelementptr inbounds [2 x i32], ptr %10, i64 0, i64 1
  store i32 %85, ptr %86, align 4, !tbaa !10
  %87 = load ptr, ptr %15, align 8, !tbaa !32
  %88 = getelementptr inbounds nuw %struct.exr_attr_chlist_entry_t, ptr %87, i32 0, i32 2
  %89 = load i8, ptr %88, align 4, !tbaa !66
  %90 = getelementptr inbounds [4 x i8], ptr %9, i64 0, i64 0
  store i8 %89, ptr %90, align 1, !tbaa !37
  %91 = getelementptr inbounds [4 x i8], ptr %9, i64 0, i64 3
  store i8 0, ptr %91, align 1, !tbaa !37
  %92 = getelementptr inbounds [4 x i8], ptr %9, i64 0, i64 2
  store i8 0, ptr %92, align 1, !tbaa !37
  %93 = getelementptr inbounds [4 x i8], ptr %9, i64 0, i64 1
  store i8 0, ptr %93, align 1, !tbaa !37
  call void @priv_from_native32(ptr noundef %7, i32 noundef 1)
  %94 = getelementptr inbounds [2 x i32], ptr %10, i64 0, i64 0
  call void @priv_from_native32(ptr noundef %94, i32 noundef 2)
  %95 = load ptr, ptr %3, align 8, !tbaa !3
  %96 = getelementptr inbounds nuw %struct._priv_exr_context_t, ptr %95, i32 0, i32 11
  %97 = load ptr, ptr %96, align 8, !tbaa !49
  %98 = load ptr, ptr %3, align 8, !tbaa !3
  %99 = load ptr, ptr %15, align 8, !tbaa !32
  %100 = getelementptr inbounds nuw %struct.exr_attr_chlist_entry_t, ptr %99, i32 0, i32 0
  %101 = getelementptr inbounds nuw %struct.exr_attr_string_t, ptr %100, i32 0, i32 2
  %102 = load ptr, ptr %101, align 8, !tbaa !67
  %103 = load ptr, ptr %15, align 8, !tbaa !32
  %104 = getelementptr inbounds nuw %struct.exr_attr_chlist_entry_t, ptr %103, i32 0, i32 0
  %105 = getelementptr inbounds nuw %struct.exr_attr_string_t, ptr %104, i32 0, i32 0
  %106 = load i32, ptr %105, align 8, !tbaa !41
  %107 = add nsw i32 %106, 1
  %108 = sext i32 %107 to i64
  %109 = load ptr, ptr %3, align 8, !tbaa !3
  %110 = getelementptr inbounds nuw %struct._priv_exr_context_t, ptr %109, i32 0, i32 30
  %111 = call i32 %97(ptr noundef %98, ptr noundef %102, i64 noundef %108, ptr noundef %110)
  store i32 %111, ptr %5, align 4, !tbaa !10
  %112 = load i32, ptr %5, align 4, !tbaa !10
  %113 = icmp ne i32 %112, 0
  br i1 %113, label %114, label %115

114:                                              ; preds = %67
  store i32 5, ptr %14, align 4
  br label %147

115:                                              ; preds = %67
  %116 = load ptr, ptr %3, align 8, !tbaa !3
  %117 = getelementptr inbounds nuw %struct._priv_exr_context_t, ptr %116, i32 0, i32 11
  %118 = load ptr, ptr %117, align 8, !tbaa !49
  %119 = load ptr, ptr %3, align 8, !tbaa !3
  %120 = load ptr, ptr %3, align 8, !tbaa !3
  %121 = getelementptr inbounds nuw %struct._priv_exr_context_t, ptr %120, i32 0, i32 30
  %122 = call i32 %118(ptr noundef %119, ptr noundef %7, i64 noundef 4, ptr noundef %121)
  store i32 %122, ptr %5, align 4, !tbaa !10
  %123 = load i32, ptr %5, align 4, !tbaa !10
  %124 = icmp ne i32 %123, 0
  br i1 %124, label %125, label %126

125:                                              ; preds = %115
  store i32 5, ptr %14, align 4
  br label %147

126:                                              ; preds = %115
  %127 = load ptr, ptr %3, align 8, !tbaa !3
  %128 = getelementptr inbounds nuw %struct._priv_exr_context_t, ptr %127, i32 0, i32 11
  %129 = load ptr, ptr %128, align 8, !tbaa !49
  %130 = load ptr, ptr %3, align 8, !tbaa !3
  %131 = getelementptr inbounds [4 x i8], ptr %9, i64 0, i64 0
  %132 = load ptr, ptr %3, align 8, !tbaa !3
  %133 = getelementptr inbounds nuw %struct._priv_exr_context_t, ptr %132, i32 0, i32 30
  %134 = call i32 %129(ptr noundef %130, ptr noundef %131, i64 noundef 4, ptr noundef %133)
  store i32 %134, ptr %5, align 4, !tbaa !10
  %135 = load i32, ptr %5, align 4, !tbaa !10
  %136 = icmp ne i32 %135, 0
  br i1 %136, label %137, label %138

137:                                              ; preds = %126
  store i32 5, ptr %14, align 4
  br label %147

138:                                              ; preds = %126
  %139 = load ptr, ptr %3, align 8, !tbaa !3
  %140 = getelementptr inbounds nuw %struct._priv_exr_context_t, ptr %139, i32 0, i32 11
  %141 = load ptr, ptr %140, align 8, !tbaa !49
  %142 = load ptr, ptr %3, align 8, !tbaa !3
  %143 = getelementptr inbounds [2 x i32], ptr %10, i64 0, i64 0
  %144 = load ptr, ptr %3, align 8, !tbaa !3
  %145 = getelementptr inbounds nuw %struct._priv_exr_context_t, ptr %144, i32 0, i32 30
  %146 = call i32 %141(ptr noundef %142, ptr noundef %143, i64 noundef 8, ptr noundef %145)
  store i32 %146, ptr %5, align 4, !tbaa !10
  store i32 0, ptr %14, align 4
  br label %147

147:                                              ; preds = %138, %137, %125, %114
  call void @llvm.lifetime.end.p0(i64 8, ptr %15) #6
  %148 = load i32, ptr %14, align 4
  switch i32 %148, label %153 [
    i32 0, label %149
  ]

149:                                              ; preds = %147
  br label %150

150:                                              ; preds = %149
  %151 = load i32, ptr %13, align 4, !tbaa !10
  %152 = add nsw i32 %151, 1
  store i32 %152, ptr %13, align 4, !tbaa !10
  br label %53, !llvm.loop !68

153:                                              ; preds = %147, %66
  call void @llvm.lifetime.end.p0(i64 4, ptr %13) #6
  br label %154

154:                                              ; preds = %153
  %155 = load i32, ptr %5, align 4, !tbaa !10
  %156 = icmp eq i32 %155, 0
  br i1 %156, label %157, label %165

157:                                              ; preds = %154
  store i8 0, ptr %8, align 1, !tbaa !37
  %158 = load ptr, ptr %3, align 8, !tbaa !3
  %159 = getelementptr inbounds nuw %struct._priv_exr_context_t, ptr %158, i32 0, i32 11
  %160 = load ptr, ptr %159, align 8, !tbaa !49
  %161 = load ptr, ptr %3, align 8, !tbaa !3
  %162 = load ptr, ptr %3, align 8, !tbaa !3
  %163 = getelementptr inbounds nuw %struct._priv_exr_context_t, ptr %162, i32 0, i32 30
  %164 = call i32 %160(ptr noundef %161, ptr noundef %8, i64 noundef 1, ptr noundef %163)
  store i32 %164, ptr %5, align 4, !tbaa !10
  br label %165

165:                                              ; preds = %157, %154
  %166 = load i32, ptr %5, align 4, !tbaa !10
  store i32 1, ptr %14, align 4
  call void @llvm.lifetime.end.p0(i64 8, ptr %10) #6
  call void @llvm.lifetime.end.p0(i64 4, ptr %9) #6
  call void @llvm.lifetime.end.p0(i64 1, ptr %8) #6
  call void @llvm.lifetime.end.p0(i64 4, ptr %7) #6
  call void @llvm.lifetime.end.p0(i64 8, ptr %6) #6
  call void @llvm.lifetime.end.p0(i64 4, ptr %5) #6
  ret i32 %166
}