; Function Attrs: nounwind uwtable
define internal fastcc i32 @save_chlist(ptr noundef %0, ptr noundef readonly captures(none) %1) unnamed_addr #2 {
  %3 = alloca i32, align 4
  %4 = alloca i32, align 4
  %5 = alloca i8, align 1
  %6 = alloca [4 x i8], align 1
  %7 = alloca [2 x i32], align 4
  call void @llvm.lifetime.start.p0(i64 4, ptr nonnull %4) #6
  call void @llvm.lifetime.start.p0(i64 1, ptr nonnull %5) #6
  call void @llvm.lifetime.start.p0(i64 4, ptr nonnull %6) #6
  call void @llvm.lifetime.start.p0(i64 8, ptr nonnull %7) #6
  %8 = getelementptr inbounds nuw i8, ptr %1, i64 24
  %9 = load ptr, ptr %8, align 8, !tbaa !35
  %10 = load i32, ptr %9, align 8, !tbaa !36
  %11 = icmp sgt i32 %10, 0
  br i1 %11, label %.lr.ph, label %._crit_edge.thread

._crit_edge.thread:                               ; preds = %2
  call void @llvm.lifetime.start.p0(i64 4, ptr nonnull %3) #6
  br label %20

.lr.ph:                                           ; preds = %2
  %12 = getelementptr inbounds nuw i8, ptr %9, i64 8
  %13 = load ptr, ptr %12, align 8, !tbaa !38
  %wide.trip.count = zext nneg i32 %10 to i64
  br label %33

._crit_edge:                                      ; preds = %33
  %14 = add i64 %39, 1
  call void @llvm.lifetime.start.p0(i64 4, ptr nonnull %3) #6
  %15 = icmp ugt i64 %14, 2147483647
  br i1 %15, label %16, label %20

16:                                               ; preds = %._crit_edge
  %17 = getelementptr inbounds nuw i8, ptr %0, i64 56
  %18 = load ptr, ptr %17, align 8, !tbaa !54
  %19 = tail call i32 %18(ptr noundef %0, i32 noundef 3) #6
  br label %save_attr_sz.exit

20:                                               ; preds = %._crit_edge.thread, %._crit_edge
  %.045.lcssa71 = phi i64 [ 1, %._crit_edge.thread ], [ %14, %._crit_edge ]
  %21 = trunc nuw nsw i64 %.045.lcssa71 to i32
  store i32 %21, ptr %3, align 4, !tbaa !43
  %22 = getelementptr inbounds nuw i8, ptr %0, i64 48
  %23 = load ptr, ptr %22, align 8, !tbaa !46
  %24 = getelementptr inbounds nuw i8, ptr %0, i64 176
  %25 = call i32 %23(ptr noundef %0, ptr noundef nonnull %3, i64 noundef 4, ptr noundef nonnull %24) #6
  br label %save_attr_sz.exit

save_attr_sz.exit:                                ; preds = %16, %20
  %.0.i = phi i32 [ %19, %16 ], [ %25, %20 ]
  call void @llvm.lifetime.end.p0(i64 4, ptr nonnull %3) #6
  %26 = icmp eq i32 %.0.i, 0
  br i1 %26, label %.lr.ph58, label %.critedge.thread

.lr.ph58:                                         ; preds = %save_attr_sz.exit
  %27 = getelementptr inbounds nuw i8, ptr %7, i64 4
  %28 = getelementptr inbounds nuw i8, ptr %6, i64 3
  %29 = getelementptr inbounds nuw i8, ptr %6, i64 2
  %30 = getelementptr inbounds nuw i8, ptr %6, i64 1
  %31 = getelementptr inbounds nuw i8, ptr %0, i64 48
  %32 = getelementptr inbounds nuw i8, ptr %0, i64 176
  br label %40

33:                                               ; preds = %.lr.ph, %33
  %indvars.iv = phi i64 [ 0, %.lr.ph ], [ %indvars.iv.next, %33 ]
  %.04556 = phi i64 [ 0, %.lr.ph ], [ %39, %33 ]
  %34 = getelementptr inbounds nuw %struct.exr_attr_chlist_entry_t, ptr %13, i64 %indvars.iv
  %35 = load i32, ptr %34, align 8, !tbaa !40
  %36 = add nsw i32 %35, 1
  %37 = sext i32 %36 to i64
  %38 = add i64 %.04556, 16
  %39 = add i64 %38, %37
  %indvars.iv.next = add nuw nsw i64 %indvars.iv, 1
  %exitcond.not = icmp eq i64 %indvars.iv.next, %wide.trip.count
  br i1 %exitcond.not, label %._crit_edge, label %33, !llvm.loop !58

40:                                               ; preds = %.lr.ph58, %70
  %indvars.iv67 = phi i64 [ 0, %.lr.ph58 ], [ %indvars.iv.next68, %70 ]
  %41 = load ptr, ptr %8, align 8, !tbaa !35
  %42 = load i32, ptr %41, align 8, !tbaa !36
  %43 = sext i32 %42 to i64
  %44 = icmp slt i64 %indvars.iv67, %43
  br i1 %44, label %45, label %.critedge

45:                                               ; preds = %40
  %46 = getelementptr inbounds nuw i8, ptr %41, i64 8
  %47 = load ptr, ptr %46, align 8, !tbaa !38
  %48 = getelementptr inbounds nuw %struct.exr_attr_chlist_entry_t, ptr %47, i64 %indvars.iv67
  %49 = getelementptr inbounds nuw i8, ptr %48, i64 16
  %50 = load i32, ptr %49, align 8, !tbaa !59
  store i32 %50, ptr %4, align 4, !tbaa !43
  %51 = getelementptr inbounds nuw i8, ptr %48, i64 24
  %52 = load i32, ptr %51, align 8, !tbaa !60
  store i32 %52, ptr %7, align 4, !tbaa !43
  %53 = getelementptr inbounds nuw i8, ptr %48, i64 28
  %54 = load i32, ptr %53, align 4, !tbaa !61
  store i32 %54, ptr %27, align 4, !tbaa !43
  %55 = getelementptr inbounds nuw i8, ptr %48, i64 20
  %56 = load i8, ptr %55, align 4, !tbaa !62
  store i8 %56, ptr %6, align 1, !tbaa !35
  store i8 0, ptr %28, align 1, !tbaa !35
  store i8 0, ptr %29, align 1, !tbaa !35
  store i8 0, ptr %30, align 1, !tbaa !35
  %57 = load ptr, ptr %31, align 8, !tbaa !46
  %58 = getelementptr inbounds nuw i8, ptr %48, i64 8
  %59 = load ptr, ptr %58, align 8, !tbaa !63
  %60 = load i32, ptr %48, align 8, !tbaa !40
  %61 = add nsw i32 %60, 1
  %62 = sext i32 %61 to i64
  %63 = call i32 %57(ptr noundef nonnull %0, ptr noundef %59, i64 noundef %62, ptr noundef nonnull %32) #6
  %.not = icmp eq i32 %63, 0
  br i1 %.not, label %64, label %.critedge.thread

64:                                               ; preds = %45
  %65 = load ptr, ptr %31, align 8, !tbaa !46
  %66 = call i32 %65(ptr noundef nonnull %0, ptr noundef nonnull %4, i64 noundef 4, ptr noundef nonnull %32) #6
  %.not50 = icmp eq i32 %66, 0
  br i1 %.not50, label %67, label %.critedge.thread

67:                                               ; preds = %64
  %68 = load ptr, ptr %31, align 8, !tbaa !46
  %69 = call i32 %68(ptr noundef nonnull %0, ptr noundef nonnull %6, i64 noundef 4, ptr noundef nonnull %32) #6
  %.not51 = icmp eq i32 %69, 0
  br i1 %.not51, label %70, label %.critedge.thread

70:                                               ; preds = %67
  %71 = load ptr, ptr %31, align 8, !tbaa !46
  %72 = call i32 %71(ptr noundef nonnull %0, ptr noundef nonnull %7, i64 noundef 8, ptr noundef nonnull %32) #6
  %indvars.iv.next68 = add nuw nsw i64 %indvars.iv67, 1
  %73 = icmp eq i32 %72, 0
  br i1 %73, label %40, label %.critedge.thread, !llvm.loop !64

.critedge:                                        ; preds = %40
  store i8 0, ptr %5, align 1, !tbaa !35
  %74 = load ptr, ptr %31, align 8, !tbaa !46
  %75 = call i32 %74(ptr noundef nonnull %0, ptr noundef nonnull %5, i64 noundef 1, ptr noundef nonnull %32) #6
  br label %.critedge.thread

.critedge.thread:                                 ; preds = %70, %45, %64, %67, %save_attr_sz.exit, %.critedge
  %.3 = phi i32 [ %75, %.critedge ], [ %.0.i, %save_attr_sz.exit ], [ %72, %70 ], [ %63, %45 ], [ %66, %64 ], [ %69, %67 ]
  call void @llvm.lifetime.end.p0(i64 8, ptr nonnull %7) #6
  call void @llvm.lifetime.end.p0(i64 4, ptr nonnull %6) #6
  call void @llvm.lifetime.end.p0(i64 1, ptr nonnull %5) #6
  call void @llvm.lifetime.end.p0(i64 4, ptr nonnull %4) #6
  ret i32 %.3
}